target datalayout = "e-m:e-p270:32:32-p271:32:32-p272:64:64-i64:64-i128:128-f80:128-n8:16:32:64-S128"
target triple = "x86_64-pc-linux-gnu"

%class.AdaptiveWeightedAverage = type { float, i32, i32, i8, float }
%class.ThreadLocalAllocBuffer = type <{ ptr, ptr, ptr, ptr, ptr, i64, i64, i64, i64, i32, i32, i32, i32, i64, %class.AdaptiveWeightedAverage, [4 x i8] }>

@_ZN22ThreadLocalAllocBuffer32_reserve_for_allocation_prefetchE = hidden global i32 0, align 4
@TLABRefillWasteFraction = external global i64, align 8
@.str.5 = private unnamed_addr constant [5 x i8] c"fill\00", align 1
@_ZN13CollectedHeap22_lab_alignment_reserveE = external global i64, align 8
@MinObjAlignment = external global i32, align 4

; Function Attrs: mustprogress nounwind uwtable
define linkonce_odr hidden noundef i64 @_Z10align_downImiTnNSt9enable_ifIXcvbsr3std11is_integralIT_EE5valueEiE4typeELi0EES1_S1_T0_(i64 noundef %0, i32 noundef %1) #1 comdat {
  %3 = alloca i64, align 8
  %4 = alloca i32, align 4
  %5 = alloca i64, align 8
  store i64 %0, ptr %3, align 8
  store i32 %1, ptr %4, align 4
  %6 = load i64, ptr %3, align 8
  %7 = load i32, ptr %4, align 4
  %8 = call noundef i32 @_ZL14alignment_maskIiTnNSt9enable_ifIXcvbsr3std11is_integralIT_EE5valueEiE4typeELi0EES1_S1_(i32 noundef %7)
  %9 = sext i32 %8 to i64
  %10 = xor i64 %9, -1
  %11 = and i64 %6, %10
  store i64 %11, ptr %5, align 8
  %12 = load i64, ptr %5, align 8
  ret i64 %12
}

; Function Attrs: mustprogress nounwind uwtable
define linkonce_odr hidden noundef i64 @_Z12checked_castImmET_T0_(i64 noundef %0) #1 comdat {
  %2 = alloca i64, align 8
  %3 = alloca i64, align 8
  store i64 %0, ptr %2, align 8
  %4 = load i64, ptr %2, align 8
  store i64 %4, ptr %3, align 8
  %5 = load i64, ptr %3, align 8
  ret i64 %5
}

; Function Attrs: mustprogress nounwind uwtable
define internal noundef i32 @_ZL14alignment_maskIiTnNSt9enable_ifIXcvbsr3std11is_integralIT_EE5valueEiE4typeELi0EES1_S1_(i32 noundef %0) #1 {
  %2 = alloca i32, align 4
  store i32 %0, ptr %2, align 4
  %3 = load i32, ptr %2, align 4
  %4 = sub nsw i32 %3, 1
  ret i32 %4
}

; Function Attrs: mustprogress nounwind uwtable
define linkonce_odr hidden noundef i64 @_Z8align_upImiTnNSt9enable_ifIXcvbsr3std11is_integralIT_EE5valueEiE4typeELi0EES1_S1_T0_(i64 noundef %0, i32 noundef %1) #1 comdat {
  %3 = alloca i64, align 8
  %4 = alloca i32, align 4
  %5 = alloca i64, align 8
  store i64 %0, ptr %3, align 8
  store i32 %1, ptr %4, align 4
  %6 = load i64, ptr %3, align 8
  %7 = load i32, ptr %4, align 4
  %8 = call noundef i32 @_ZL14alignment_maskIiTnNSt9enable_ifIXcvbsr3std11is_integralIT_EE5valueEiE4typeELi0EES1_S1_(i32 noundef %7)
  %9 = sext i32 %8 to i64
  %10 = add i64 %6, %9
  %11 = call noundef i64 @_Z12checked_castImmET_T0_(i64 noundef %10)
  store i64 %11, ptr %5, align 8
  %12 = load i64, ptr %5, align 8
  %13 = load i32, ptr %4, align 4
  %14 = call noundef i64 @_Z10align_downImiTnNSt9enable_ifIXcvbsr3std11is_integralIT_EE5valueEiE4typeELi0EES1_S1_T0_(i64 noundef %12, i32 noundef %13)
  ret i64 %14
}

; Function Attrs: mustprogress nounwind uwtable
define linkonce_odr hidden noundef i64 @_Z4MAX2ImET_S0_S0_(i64 noundef %0, i64 noundef %1) #1 comdat {
  %3 = alloca i64, align 8
  %4 = alloca i64, align 8
  store i64 %0, ptr %3, align 8
  store i64 %1, ptr %4, align 8
  %5 = load i64, ptr %3, align 8
  %6 = load i64, ptr %4, align 8
  %7 = icmp ugt i64 %5, %6
  br i1 %7, label %8, label %10

8:                                                ; preds = %2
  %9 = load i64, ptr %3, align 8
  br label %12

10:                                               ; preds = %2
  %11 = load i64, ptr %4, align 8
  br label %12

12:                                               ; preds = %10, %8
  %13 = phi i64 [ %9, %8 ], [ %11, %10 ]
  ret i64 %13
}

; Function Attrs: mustprogress nounwind uwtable
define linkonce_odr hidden noundef i64 @_ZN13CollectedHeap21lab_alignment_reserveEv() #1 comdat align 2 {
  %1 = load i64, ptr @_ZN13CollectedHeap22_lab_alignment_reserveE, align 8
  ret i64 %1
}

; Function Attrs: mustprogress nounwind uwtable
define linkonce_odr hidden noundef i64 @_ZNK22ThreadLocalAllocBuffer12desired_sizeEv(ptr noundef nonnull align 8 dereferenceable(116) %0) #1 comdat align 2 {
  %2 = alloca ptr, align 8
  store ptr %0, ptr %2, align 8
  %3 = load ptr, ptr %2, align 8
  %4 = getelementptr inbounds %class.ThreadLocalAllocBuffer, ptr %3, i32 0, i32 5
  %5 = load i64, ptr %4, align 8
  ret i64 %5
}

; Function Attrs: mustprogress nounwind uwtable
define linkonce_odr hidden void @_ZNK22ThreadLocalAllocBuffer10invariantsEv(ptr noundef nonnull align 8 dereferenceable(116) %0) #1 comdat align 2 {
  %2 = alloca ptr, align 8
  store ptr %0, ptr %2, align 8
  ret void
}

; Function Attrs: mustprogress nounwind uwtable
define linkonce_odr hidden void @_ZN22ThreadLocalAllocBuffer18set_allocation_endEPP12HeapWordImpl(ptr noundef nonnull align 8 dereferenceable(116) %0, ptr noundef %1) #1 comdat align 2 {
  %3 = alloca ptr, align 8
  %4 = alloca ptr, align 8
  store ptr %0, ptr %3, align 8
  store ptr %1, ptr %4, align 8
  %5 = load ptr, ptr %3, align 8
  %6 = load ptr, ptr %4, align 8
  %7 = getelementptr inbounds %class.ThreadLocalAllocBuffer, ptr %5, i32 0, i32 4
  store ptr %6, ptr %7, align 8
  ret void
}

; Function Attrs: mustprogress nounwind uwtable
define linkonce_odr hidden void @_ZN22ThreadLocalAllocBuffer7set_endEPP12HeapWordImpl(ptr noundef nonnull align 8 dereferenceable(116) %0, ptr noundef %1) #1 comdat align 2 {
  %3 = alloca ptr, align 8
  %4 = alloca ptr, align 8
  store ptr %0, ptr %3, align 8
  store ptr %1, ptr %4, align 8
  %5 = load ptr, ptr %3, align 8
  %6 = load ptr, ptr %4, align 8
  %7 = getelementptr inbounds %class.ThreadLocalAllocBuffer, ptr %5, i32 0, i32 3
  store ptr %6, ptr %7, align 8
  ret void
}

; Function Attrs: mustprogress nounwind uwtable
define linkonce_odr hidden void @_ZN22ThreadLocalAllocBuffer10set_pf_topEPP12HeapWordImpl(ptr noundef nonnull align 8 dereferenceable(116) %0, ptr noundef %1) #1 comdat align 2 {
  %3 = alloca ptr, align 8
  %4 = alloca ptr, align 8
  store ptr %0, ptr %3, align 8
  store ptr %1, ptr %4, align 8
  %5 = load ptr, ptr %3, align 8
  %6 = load ptr, ptr %4, align 8
  %7 = getelementptr inbounds %class.ThreadLocalAllocBuffer, ptr %5, i32 0, i32 2
  store ptr %6, ptr %7, align 8
  ret void
}

; Function Attrs: mustprogress nounwind uwtable
define linkonce_odr hidden void @_ZN22ThreadLocalAllocBuffer7set_topEPP12HeapWordImpl(ptr noundef nonnull align 8 dereferenceable(116) %0, ptr noundef %1) #1 comdat align 2 {
  %3 = alloca ptr, align 8
  %4 = alloca ptr, align 8
  store ptr %0, ptr %3, align 8
  store ptr %1, ptr %4, align 8
  %5 = load ptr, ptr %3, align 8
  %6 = load ptr, ptr %4, align 8
  %7 = getelementptr inbounds %class.ThreadLocalAllocBuffer, ptr %5, i32 0, i32 1
  store ptr %6, ptr %7, align 8
  ret void
}

; Function Attrs: mustprogress nounwind uwtable
define linkonce_odr hidden void @_ZN22ThreadLocalAllocBuffer9set_startEPP12HeapWordImpl(ptr noundef nonnull align 8 dereferenceable(116) %0, ptr noundef %1) #1 comdat align 2 {
  %3 = alloca ptr, align 8
  %4 = alloca ptr, align 8
  store ptr %0, ptr %3, align 8
  store ptr %1, ptr %4, align 8
  %5 = load ptr, ptr %3, align 8
  %6 = load ptr, ptr %4, align 8
  %7 = getelementptr inbounds %class.ThreadLocalAllocBuffer, ptr %5, i32 0, i32 0
  store ptr %6, ptr %7, align 8
  ret void
}

; Function Attrs: mustprogress nounwind uwtable
define linkonce_odr hidden noundef i64 @_Z17align_object_sizeImET_S0_(i64 noundef %0) #1 comdat {
  %2 = alloca i64, align 8
  store i64 %0, ptr %2, align 8
  %3 = load i64, ptr %2, align 8
  %4 = load i32, ptr @MinObjAlignment, align 4
  %5 = call noundef i64 @_Z8align_upImiTnNSt9enable_ifIXcvbsr3std11is_integralIT_EE5valueEiE4typeELi0EES1_S1_T0_(i64 noundef %3, i32 noundef %4)
  ret i64 %5
}

; Function Attrs: mustprogress nounwind uwtable
define hidden noundef i64 @_ZN22ThreadLocalAllocBuffer11end_reserveEv() #1 align 2 {
  %1 = alloca i64, align 8
  %2 = call noundef i64 @_ZN13CollectedHeap21lab_alignment_reserveEv()
  store i64 %2, ptr %1, align 8
  %3 = load i64, ptr %1, align 8
  %4 = load i32, ptr @_ZN22ThreadLocalAllocBuffer32_reserve_for_allocation_prefetchE, align 4
  %5 = sext i32 %4 to i64
  %6 = call noundef i64 @_Z4MAX2ImET_S0_S0_(i64 noundef %3, i64 noundef %5)
  ret i64 %6
}

; Function Attrs: mustprogress nounwind uwtable
define linkonce_odr hidden void @_ZN22ThreadLocalAllocBuffer22set_refill_waste_limitEm(ptr noundef nonnull align 8 dereferenceable(116) %0, i64 noundef %1) #1 comdat align 2 {
  %3 = alloca ptr, align 8
  %4 = alloca i64, align 8
  store ptr %0, ptr %3, align 8
  store i64 %1, ptr %4, align 8
  %5 = load ptr, ptr %3, align 8
  %6 = load i64, ptr %4, align 8
  %7 = getelementptr inbounds %class.ThreadLocalAllocBuffer, ptr %5, i32 0, i32 6
  store i64 %6, ptr %7, align 8
  ret void
}

; Function Attrs: mustprogress nounwind uwtable
define hidden noundef i64 @_ZN22ThreadLocalAllocBuffer26initial_refill_waste_limitEv(ptr noundef nonnull align 8 dereferenceable(116) %0) #1 align 2 {
  %2 = alloca ptr, align 8
  store ptr %0, ptr %2, align 8
  %3 = load ptr, ptr %2, align 8
  %4 = call noundef i64 @_ZNK22ThreadLocalAllocBuffer12desired_sizeEv(ptr noundef nonnull align 8 dereferenceable(116) %3)
  %5 = load i64, ptr @TLABRefillWasteFraction, align 8
  %6 = udiv i64 %4, %5
  ret i64 %6
}

; Function Attrs: mustprogress nounwind uwtable
define hidden void @_ZN22ThreadLocalAllocBuffer10initializeEPP12HeapWordImplS2_S2_(ptr noundef nonnull align 8 dereferenceable(116) %0, ptr noundef %1, ptr noundef %2, ptr noundef %3) #1 align 2 {
  %5 = alloca ptr, align 8
  %6 = alloca ptr, align 8
  %7 = alloca ptr, align 8
  %8 = alloca ptr, align 8
  store ptr %0, ptr %5, align 8
  store ptr %1, ptr %6, align 8
  store ptr %2, ptr %7, align 8
  store ptr %3, ptr %8, align 8
  %9 = load ptr, ptr %5, align 8
  %10 = load ptr, ptr %6, align 8
  call void @_ZN22ThreadLocalAllocBuffer9set_startEPP12HeapWordImpl(ptr noundef nonnull align 8 dereferenceable(116) %9, ptr noundef %10)
  %11 = load ptr, ptr %7, align 8
  call void @_ZN22ThreadLocalAllocBuffer7set_topEPP12HeapWordImpl(ptr noundef nonnull align 8 dereferenceable(116) %9, ptr noundef %11)
  %12 = load ptr, ptr %7, align 8
  call void @_ZN22ThreadLocalAllocBuffer10set_pf_topEPP12HeapWordImpl(ptr noundef nonnull align 8 dereferenceable(116) %9, ptr noundef %12)
  %13 = load ptr, ptr %8, align 8
  call void @_ZN22ThreadLocalAllocBuffer7set_endEPP12HeapWordImpl(ptr noundef nonnull align 8 dereferenceable(116) %9, ptr noundef %13)
  %14 = load ptr, ptr %8, align 8
  call void @_ZN22ThreadLocalAllocBuffer18set_allocation_endEPP12HeapWordImpl(ptr noundef nonnull align 8 dereferenceable(116) %9, ptr noundef %14)
  call void @_ZNK22ThreadLocalAllocBuffer10invariantsEv(ptr noundef nonnull align 8 dereferenceable(116) %9)
  ret void
}

; Function Attrs: mustprogress nounwind uwtable
define linkonce_odr hidden noundef i64 @_ZN22ThreadLocalAllocBuffer17alignment_reserveEv() #1 comdat align 2 {
  %1 = call noundef i64 @_ZN22ThreadLocalAllocBuffer11end_reserveEv()
  %2 = call noundef i64 @_Z17align_object_sizeImET_S0_(i64 noundef %1)
  ret i64 %2
}

; Function Attrs: mustprogress nounwind uwtable
define hidden void @_ZN22ThreadLocalAllocBuffer4fillEPP12HeapWordImplS2_m(ptr noundef nonnull align 8 dereferenceable(116) %0, ptr noundef %1, ptr noundef %2, i64 noundef %3) #1 align 2 {
  %5 = alloca ptr, align 8
  %6 = alloca ptr, align 8
  %7 = alloca ptr, align 8
  %8 = alloca i64, align 8
  store ptr %0, ptr %5, align 8
  store ptr %1, ptr %6, align 8
  store ptr %2, ptr %7, align 8
  store i64 %3, ptr %8, align 8
  %9 = load ptr, ptr %5, align 8
  %10 = getelementptr inbounds %class.ThreadLocalAllocBuffer, ptr %9, i32 0, i32 9
  %11 = load i32, ptr %10, align 8
  %12 = add i32 %11, 1
  store i32 %12, ptr %10, align 8
  %13 = load i64, ptr %8, align 8
  %14 = getelementptr inbounds %class.ThreadLocalAllocBuffer, ptr %9, i32 0, i32 13
  %15 = load i64, ptr %14, align 8
  %16 = add i64 %15, %13
  store i64 %16, ptr %14, align 8
  call void @_ZN22ThreadLocalAllocBuffer11print_statsEPKc(ptr noundef nonnull align 8 dereferenceable(116) %9, ptr noundef @.str.5)
  %17 = load ptr, ptr %6, align 8
  %18 = load ptr, ptr %7, align 8
  %19 = load ptr, ptr %6, align 8
  %20 = load i64, ptr %8, align 8
  %21 = getelementptr inbounds ptr, ptr %19, i64 %20
  %22 = call noundef i64 @_ZN22ThreadLocalAllocBuffer17alignment_reserveEv()
  %23 = sub i64 0, %22
  %24 = getelementptr inbounds ptr, ptr %21, i64 %23
  call void @_ZN22ThreadLocalAllocBuffer10initializeEPP12HeapWordImplS2_S2_(ptr noundef nonnull align 8 dereferenceable(116) %9, ptr noundef %17, ptr noundef %18, ptr noundef %24)
  %25 = call noundef i64 @_ZN22ThreadLocalAllocBuffer26initial_refill_waste_limitEv(ptr noundef nonnull align 8 dereferenceable(116) %9)
  call void @_ZN22ThreadLocalAllocBuffer22set_refill_waste_limitEm(ptr noundef nonnull align 8 dereferenceable(116) %9, i64 noundef %25)
  ret void
}