; Function Attrs: mustprogress nounwind uwtable
define hidden void @_ZN22ThreadLocalAllocBuffer4fillEPP12HeapWordImplS2_m(ptr noundef nonnull align 8 dereferenceable(116) %0, ptr noundef %1, ptr noundef %2, i64 noundef %3) local_unnamed_addr #3 align 2 {
  %5 = getelementptr inbounds i8, ptr %0, i64 72
  %6 = load i32, ptr %5, align 8
  %7 = add i32 %6, 1
  store i32 %7, ptr %5, align 8
  %8 = getelementptr inbounds i8, ptr %0, i64 88
  %9 = load i64, ptr %8, align 8
  %10 = add i64 %9, %3
  store i64 %10, ptr %8, align 8
  tail call void @_ZN22ThreadLocalAllocBuffer11print_statsEPKc(ptr noundef nonnull align 8 dereferenceable(116) %0, ptr noundef nonnull @.str.5)
  %11 = getelementptr inbounds ptr, ptr %1, i64 %3
  %12 = load i64, ptr @_ZN13CollectedHeap22_lab_alignment_reserveE, align 8
  %13 = load i32, ptr @_ZN22ThreadLocalAllocBuffer32_reserve_for_allocation_prefetchE, align 4
  %14 = sext i32 %13 to i64
  %15 = tail call noundef i64 @llvm.umax.i64(i64 %12, i64 %14)
  %16 = load i32, ptr @MinObjAlignment, align 4
  %17 = add nsw i32 %16, -1
  %18 = sext i32 %17 to i64
  %19 = add i64 %15, %18
  %20 = sub i32 0, %16
  %21 = sext i32 %20 to i64
  %22 = and i64 %19, %21
  %23 = sub i64 0, %22
  %24 = getelementptr inbounds ptr, ptr %11, i64 %23
  store ptr %1, ptr %0, align 8
  %25 = getelementptr inbounds i8, ptr %0, i64 8
  store ptr %2, ptr %25, align 8
  %26 = getelementptr inbounds i8, ptr %0, i64 16
  store ptr %2, ptr %26, align 8
  %27 = getelementptr inbounds i8, ptr %0, i64 24
  store ptr %24, ptr %27, align 8
  %28 = getelementptr inbounds i8, ptr %0, i64 32
  store ptr %24, ptr %28, align 8
  %29 = getelementptr inbounds i8, ptr %0, i64 40
  %30 = load i64, ptr %29, align 8
  %31 = load i64, ptr @TLABRefillWasteFraction, align 8
  %32 = udiv i64 %30, %31
  %33 = getelementptr inbounds i8, ptr %0, i64 48
  store i64 %32, ptr %33, align 8
  ret void
}